; Function Attrs: nounwind uwtable
define internal fastcc void @yyensure_buffer_stack(ptr nocapture noundef %0) unnamed_addr #0 {
  %2 = getelementptr inbounds i8, ptr %0, i64 40
  %3 = load ptr, ptr %2, align 8
  %.not = icmp eq ptr %3, null
  br i1 %.not, label %4, label %14

4:                                                ; preds = %1
  %5 = tail call noalias noundef dereferenceable_or_null(8) ptr @malloc(i64 noundef 8) #34
  store ptr %5, ptr %2, align 8
  %.not26 = icmp eq ptr %5, null
  br i1 %.not26, label %6, label %11

6:                                                ; preds = %4
  %7 = load ptr, ptr %0, align 8
  %8 = getelementptr inbounds i8, ptr %7, i64 16
  %9 = load i32, ptr %8, align 8
  tail call void @yara_yyerror(ptr noundef nonnull %0, ptr noundef %7, ptr noundef nonnull @.str.33)
  store i32 %9, ptr %8, align 8
  %10 = getelementptr inbounds i8, ptr %7, i64 24
  tail call void @longjmp(ptr noundef nonnull %10, i32 noundef 1) #31
  unreachable

11:                                               ; preds = %4
  store i64 0, ptr %5, align 8
  %12 = getelementptr inbounds i8, ptr %0, i64 32
  store i64 1, ptr %12, align 8
  %13 = getelementptr inbounds i8, ptr %0, i64 24
  store i64 0, ptr %13, align 8
  br label %32

14:                                               ; preds = %1
  %15 = getelementptr inbounds i8, ptr %0, i64 24
  %16 = load i64, ptr %15, align 8
  %17 = getelementptr inbounds i8, ptr %0, i64 32
  %18 = load i64, ptr %17, align 8
  %19 = add i64 %18, -1
  %.not27 = icmp ult i64 %16, %19
  br i1 %.not27, label %32, label %20

20:                                               ; preds = %14
  %21 = add i64 %18, 8
  %22 = shl i64 %21, 3
  %23 = tail call noalias noundef ptr @realloc(ptr noundef nonnull %3, i64 noundef %22) #32
  store ptr %23, ptr %2, align 8
  %.not28 = icmp eq ptr %23, null
  br i1 %.not28, label %24, label %29

24:                                               ; preds = %20
  %25 = load ptr, ptr %0, align 8
  %26 = getelementptr inbounds i8, ptr %25, i64 16
  %27 = load i32, ptr %26, align 8
  tail call void @yara_yyerror(ptr noundef nonnull %0, ptr noundef %25, ptr noundef nonnull @.str.33)
  store i32 %27, ptr %26, align 8
  %28 = getelementptr inbounds i8, ptr %25, i64 24
  tail call void @longjmp(ptr noundef nonnull %28, i32 noundef 1) #31
  unreachable

29:                                               ; preds = %20
  %30 = load i64, ptr %17, align 8
  %31 = getelementptr inbounds ptr, ptr %23, i64 %30
  tail call void @llvm.memset.p0.i64(ptr noundef nonnull align 8 dereferenceable(64) %31, i8 0, i64 64, i1 false)
  store i64 %21, ptr %17, align 8
  br label %32

32:                                               ; preds = %29, %14, %11
  ret void
}